; Function Attrs: mustprogress uwtable
define void @_Z8drawLineP6GLAreaR6QPointS2_(ptr nocapture noundef readonly %0, ptr nocapture noundef nonnull readonly align 4 dereferenceable(8) %1, ptr nocapture noundef nonnull readonly align 4 dereferenceable(8) %2) local_unnamed_addr #9 {
  %4 = alloca float, align 4
  tail call void @glMatrixMode(i32 noundef 5889)
  tail call void @glPushMatrix()
  tail call void @glLoadIdentity()
  %5 = getelementptr inbounds i8, ptr %0, i64 40
  %6 = load ptr, ptr %5, align 8
  %7 = getelementptr inbounds i8, ptr %6, i64 20
  %8 = getelementptr inbounds i8, ptr %6, i64 28
  %9 = load i32, ptr %8, align 4
  %10 = load i32, ptr %7, align 4
  %11 = add i32 %9, 1
  %12 = sub i32 %11, %10
  %13 = sitofp i32 %12 to double
  %14 = getelementptr inbounds i8, ptr %6, i64 32
  %15 = load i32, ptr %14, align 4
  %16 = getelementptr inbounds i8, ptr %6, i64 24
  %17 = load i32, ptr %16, align 4
  %18 = add i32 %15, 1
  %19 = sub i32 %18, %17
  %20 = sitofp i32 %19 to double
  tail call void @glOrtho(double noundef 0.000000e+00, double noundef %13, double noundef %20, double noundef 0.000000e+00, double noundef -1.000000e+00, double noundef 1.000000e+00)
  tail call void @glMatrixMode(i32 noundef 5888)
  tail call void @glPushMatrix()
  tail call void @glLoadIdentity()
  tail call void @glPushAttrib(i32 noundef 8192)
  tail call void @glDisable(i32 noundef 2929)
  tail call void @glDisable(i32 noundef 2896)
  tail call void @glDisable(i32 noundef 3553)
  tail call void @glEnable(i32 noundef 3058)
  call void @glGetFloatv(i32 noundef 2849, ptr noundef nonnull %4)
  call void @glLineWidth(float noundef 4.000000e+00)
  call void @glLogicOp(i32 noundef 5382)
  call void @glColor3f(float noundef 1.000000e+00, float noundef 1.000000e+00, float noundef 1.000000e+00)
  call void @glBegin(i32 noundef 1)
  %21 = load i32, ptr %1, align 4
  %22 = sitofp i32 %21 to float
  %23 = getelementptr inbounds i8, ptr %1, i64 4
  %24 = load i32, ptr %23, align 4
  %25 = sitofp i32 %24 to float
  call void @glVertex2f(float noundef %22, float noundef %25)
  %26 = load i32, ptr %2, align 4
  %27 = sitofp i32 %26 to float
  %28 = getelementptr inbounds i8, ptr %2, i64 4
  %29 = load i32, ptr %28, align 4
  %30 = sitofp i32 %29 to float
  call void @glVertex2f(float noundef %27, float noundef %30)
  call void @glEnd()
  call void @glPopAttrib()
  call void @glPopMatrix()
  %31 = load float, ptr %4, align 4
  call void @glLineWidth(float noundef %31)
  call void @glMatrixMode(i32 noundef 5889)
  call void @glPopMatrix()
  call void @glMatrixMode(i32 noundef 5888)
  ret void
}